; Function Attrs: mustprogress uwtable
define noundef i32 @_ZNK6icu_7714HebrewCalendar19handleGetYearLengthEiR10UErrorCode(ptr nonnull readnone align 8 captures(none) %0, i32 noundef %1, ptr noundef nonnull align 4 dereferenceable(4) %2) unnamed_addr #0 align 2 {
  %4 = load i32, ptr %2, align 4, !tbaa !6
  %5 = icmp slt i32 %4, 1
  br i1 %5, label %6, label %_ZN6icu_7712_GLOBAL__N_110daysInYearEiR10UErrorCode.exit

6:                                                ; preds = %3
  %7 = add nsw i32 %1, 1
  %8 = tail call fastcc noundef i32 @_ZN6icu_7712_GLOBAL__N_111startOfYearEiR10UErrorCode(i32 noundef %7, ptr noundef nonnull align 4 dereferenceable(4) %2)
  %9 = tail call fastcc noundef i32 @_ZN6icu_7712_GLOBAL__N_111startOfYearEiR10UErrorCode(i32 noundef %1, ptr noundef nonnull align 4 dereferenceable(4) %2)
  %10 = sub nsw i32 %8, %9
  br label %_ZN6icu_7712_GLOBAL__N_110daysInYearEiR10UErrorCode.exit

_ZN6icu_7712_GLOBAL__N_110daysInYearEiR10UErrorCode.exit: ; preds = %3, %6
  %.0.i = phi i32 [ %10, %6 ], [ 0, %3 ]
  ret i32 %.0.i
}